; Function Attrs: mustprogress uwtable
define hidden noundef zeroext i1 @_ZNK3sls12bv_valuation8in_rangeERKNS_5bvectE(ptr noundef nonnull readonly align 8 captures(none) dereferenceable(184) %0, ptr noundef nonnull readonly align 8 captures(none) dereferenceable(20) %1) local_unnamed_addr #3 align 2 {
  %3 = alloca %class.mpn_manager, align 1
  call void @llvm.lifetime.start.p0(i64 1, ptr nonnull %3) #29
  %4 = getelementptr inbounds nuw i8, ptr %0, i64 24
  %5 = load ptr, ptr %4, align 8, !tbaa !14
  %6 = getelementptr inbounds nuw i8, ptr %0, i64 156
  %7 = load i32, ptr %6, align 4, !tbaa !68
  %8 = getelementptr inbounds nuw i8, ptr %0, i64 48
  %9 = load ptr, ptr %8, align 8, !tbaa !14
  %10 = call noundef i32 @_ZNK11mpn_manager7compareEPKjjS1_j(ptr noundef nonnull align 1 dereferenceable(1) %3, ptr noundef %5, i32 noundef %7, ptr noundef %9, i32 noundef %7)
  %11 = icmp eq i32 %10, 0
  br i1 %11, label %26, label %12

12:                                               ; preds = %2
  %13 = icmp slt i32 %10, 0
  %14 = load ptr, ptr %4, align 8, !tbaa !14
  %15 = load i32, ptr %6, align 4, !tbaa !68
  %16 = load ptr, ptr %1, align 8, !tbaa !14
  %17 = call noundef i32 @_ZNK11mpn_manager7compareEPKjjS1_j(ptr noundef nonnull align 1 dereferenceable(1) %3, ptr noundef %14, i32 noundef %15, ptr noundef %16, i32 noundef %15)
  %18 = icmp slt i32 %17, 1
  br i1 %13, label %19, label %20

19:                                               ; preds = %12
  br i1 %18, label %.sink.split, label %26

20:                                               ; preds = %12
  br i1 %18, label %26, label %.sink.split

.sink.split:                                      ; preds = %20, %19
  %21 = load ptr, ptr %1, align 8, !tbaa !14
  %22 = load i32, ptr %6, align 4, !tbaa !68
  %23 = load ptr, ptr %8, align 8, !tbaa !14
  %24 = call noundef i32 @_ZNK11mpn_manager7compareEPKjjS1_j(ptr noundef nonnull align 1 dereferenceable(1) %3, ptr noundef %21, i32 noundef %22, ptr noundef %23, i32 noundef %22)
  %25 = icmp slt i32 %24, 0
  br label %26

26:                                               ; preds = %.sink.split, %20, %19, %2
  %.0 = phi i1 [ true, %2 ], [ false, %19 ], [ true, %20 ], [ %25, %.sink.split ]
  call void @llvm.lifetime.end.p0(i64 1, ptr nonnull %3) #29
  ret i1 %.0
}